target datalayout = "e-m:e-p270:32:32-p271:32:32-p272:64:64-i64:64-i128:128-f80:128-n8:16:32:64-S128"
target triple = "x86_64-pc-linux-gnu"

@.str = private unnamed_addr constant [1 x i8] zeroinitializer, align 1
@.str.10 = private unnamed_addr constant [46 x i8] c"invalid value \22%s\22 for \22%s\22: integer expected\00", align 1

; Function Attrs: nounwind uwtable
define dso_local zeroext i1 @ParseVariableNum(ptr noundef %0, ptr noundef %1, ptr noundef %2) #0 {
  %4 = alloca i1, align 1
  %5 = alloca ptr, align 8
  %6 = alloca ptr, align 8
  %7 = alloca ptr, align 8
  %8 = alloca ptr, align 8
  %9 = alloca i64, align 8
  %10 = alloca i32, align 4
  store ptr %0, ptr %5, align 8
  store ptr %1, ptr %6, align 8
  store ptr %2, ptr %7, align 8
  call void @llvm.lifetime.start.p0(i64 8, ptr %8) #6
  call void @llvm.lifetime.start.p0(i64 8, ptr %9) #6
  %11 = load ptr, ptr %5, align 8
  %12 = icmp eq ptr %11, null
  br i1 %12, label %13, label %14

13:                                               ; preds = %3
  store ptr @.str, ptr %5, align 8
  br label %14

14:                                               ; preds = %13, %3
  %15 = call ptr @__errno_location() #8
  store i32 0, ptr %15, align 4
  %16 = load ptr, ptr %5, align 8
  %17 = call i64 @strtol(ptr noundef %16, ptr noundef %8, i32 noundef 0) #6
  store i64 %17, ptr %9, align 8
  %18 = call ptr @__errno_location() #8
  %19 = load i32, ptr %18, align 4
  %20 = icmp eq i32 %19, 0
  br i1 %20, label %21, label %40

21:                                               ; preds = %14
  %22 = load ptr, ptr %8, align 8
  %23 = load i8, ptr %22, align 1
  %24 = sext i8 %23 to i32
  %25 = icmp eq i32 %24, 0
  br i1 %25, label %26, label %40

26:                                               ; preds = %21
  %27 = load ptr, ptr %8, align 8
  %28 = load ptr, ptr %5, align 8
  %29 = icmp ne ptr %27, %28
  br i1 %29, label %30, label %40

30:                                               ; preds = %26
  %31 = load i64, ptr %9, align 8
  %32 = load i64, ptr %9, align 8
  %33 = trunc i64 %32 to i32
  %34 = sext i32 %33 to i64
  %35 = icmp eq i64 %31, %34
  br i1 %35, label %36, label %40

36:                                               ; preds = %30
  %37 = load i64, ptr %9, align 8
  %38 = trunc i64 %37 to i32
  %39 = load ptr, ptr %7, align 8
  store i32 %38, ptr %39, align 4
  store i1 true, ptr %4, align 1
  store i32 1, ptr %10, align 4
  br label %47

40:                                               ; preds = %30, %26, %21, %14
  %41 = load ptr, ptr %6, align 8
  %42 = icmp ne ptr %41, null
  br i1 %42, label %43, label %46

43:                                               ; preds = %40
  %44 = load ptr, ptr %5, align 8
  %45 = load ptr, ptr %6, align 8
  call void (i32, i32, ptr, ...) @pg_log_generic(i32 noundef 4, i32 noundef 0, ptr noundef @.str.10, ptr noundef %44, ptr noundef %45)
  br label %46

46:                                               ; preds = %43, %40
  store i1 false, ptr %4, align 1
  store i32 1, ptr %10, align 4
  br label %47

47:                                               ; preds = %46, %36
  call void @llvm.lifetime.end.p0(i64 8, ptr %9) #6
  call void @llvm.lifetime.end.p0(i64 8, ptr %8) #6
  %48 = load i1, ptr %4, align 1
  ret i1 %48
}