; Function Attrs: nounwind uwtable
define dso_local noundef zeroext i1 @ParseVariableNum(ptr noundef %0, ptr noundef %1, ptr noundef writeonly captures(none) %2) local_unnamed_addr #0 {
  %4 = alloca ptr, align 8
  call void @llvm.lifetime.start.p0(i64 8, ptr nonnull %4) #11
  %5 = icmp eq ptr %0, null
  %spec.store.select = select i1 %5, ptr @.str, ptr %0
  %6 = tail call ptr @__errno_location() #13
  store i32 0, ptr %6, align 4
  %7 = call i64 @strtol(ptr noundef nonnull %spec.store.select, ptr noundef nonnull %4, i32 noundef 0) #11
  %8 = load i32, ptr %6, align 4
  %9 = icmp eq i32 %8, 0
  br i1 %9, label %10, label %18

10:                                               ; preds = %3
  %11 = load ptr, ptr %4, align 8
  %12 = load i8, ptr %11, align 1
  %13 = icmp eq i8 %12, 0
  %.not = icmp ne ptr %11, %spec.store.select
  %or.cond.not15 = and i1 %.not, %13
  %14 = add i64 %7, 2147483648
  %15 = icmp ult i64 %14, 4294967296
  %or.cond13 = select i1 %or.cond.not15, i1 %15, i1 false
  br i1 %or.cond13, label %16, label %18

16:                                               ; preds = %10
  %17 = trunc i64 %7 to i32
  store i32 %17, ptr %2, align 4
  br label %20

18:                                               ; preds = %10, %3
  %.not11 = icmp eq ptr %1, null
  br i1 %.not11, label %20, label %19

19:                                               ; preds = %18
  tail call void (i32, i32, ptr, ...) @pg_log_generic(i32 noundef 4, i32 noundef 0, ptr noundef nonnull @.str.10, ptr noundef nonnull %spec.store.select, ptr noundef nonnull %1) #11
  br label %20

20:                                               ; preds = %18, %19, %16
  %.0 = phi i1 [ true, %16 ], [ false, %19 ], [ false, %18 ]
  call void @llvm.lifetime.end.p0(i64 8, ptr nonnull %4) #11
  ret i1 %.0
}